target datalayout = "e-m:e-p270:32:32-p271:32:32-p272:64:64-i64:64-i128:128-f80:128-n8:16:32:64-S128"
target triple = "x86_64-pc-linux-gnu"

%"class.glslang::TQualifier" = type <{ ptr, i64, i8, [3 x i8], i32, i32, i64, i64, i8, i8, i8, i8, i8, [3 x i8], i32, i8, i8, i8, i8, i32, ptr, i8, i8, [6 x i8] }>
%"struct.glslang::TSourceLoc" = type { ptr, i32, i32, i32 }
%"class.glslang::TType" = type { ptr, i32, [4 x i8], %"class.glslang::TQualifier", ptr, %union.anon.267, ptr, ptr, %"struct.glslang::TSampler", ptr, ptr }
%union.anon.267 = type { ptr }
%"struct.glslang::TSampler" = type { i32 }
%"struct.glslang::TTypeLoc" = type { ptr, %"struct.glslang::TSourceLoc" }
%"struct.std::_Vector_base.286" = type { %"struct.std::_Vector_base<glslang::TTypeLoc, glslang::pool_allocator<glslang::TTypeLoc>>::_Vector_impl" }
%"struct.std::_Vector_base<glslang::TTypeLoc, glslang::pool_allocator<glslang::TTypeLoc>>::_Vector_impl" = type { %"class.glslang::pool_allocator.287", %"struct.std::_Vector_base<glslang::TTypeLoc, glslang::pool_allocator<glslang::TTypeLoc>>::_Vector_impl_data" }
%"class.glslang::pool_allocator.287" = type { ptr }
%"struct.std::_Vector_base<glslang::TTypeLoc, glslang::pool_allocator<glslang::TTypeLoc>>::_Vector_impl_data" = type { ptr, ptr, ptr }

; Function Attrs: mustprogress nounwind uwtable
define linkonce_odr noundef nonnull align 8 dereferenceable(32) ptr @_ZNKSt6vectorIN7glslang8TTypeLocENS0_14pool_allocatorIS1_EEEixEm(ptr noundef nonnull align 8 dereferenceable(32) %0, i64 noundef %1) #0 comdat align 2 {
  %3 = alloca ptr, align 8
  %4 = alloca i64, align 8
  store ptr %0, ptr %3, align 8
  store i64 %1, ptr %4, align 8
  %5 = load ptr, ptr %3, align 8
  %6 = getelementptr inbounds %"struct.std::_Vector_base.286", ptr %5, i32 0, i32 0
  %7 = getelementptr inbounds i8, ptr %6, i64 8
  %8 = getelementptr inbounds %"struct.std::_Vector_base<glslang::TTypeLoc, glslang::pool_allocator<glslang::TTypeLoc>>::_Vector_impl_data", ptr %7, i32 0, i32 0
  %9 = load ptr, ptr %8, align 8
  %10 = load i64, ptr %4, align 8
  %11 = getelementptr inbounds %"struct.glslang::TTypeLoc", ptr %9, i64 %10
  ret ptr %11
}

; Function Attrs: mustprogress nounwind uwtable
define linkonce_odr noundef i64 @_ZNKSt6vectorIN7glslang8TTypeLocENS0_14pool_allocatorIS1_EEE4sizeEv(ptr noundef nonnull align 8 dereferenceable(32) %0) #0 comdat align 2 {
  %2 = alloca ptr, align 8
  store ptr %0, ptr %2, align 8
  %3 = load ptr, ptr %2, align 8
  %4 = getelementptr inbounds %"struct.std::_Vector_base.286", ptr %3, i32 0, i32 0
  %5 = getelementptr inbounds i8, ptr %4, i64 8
  %6 = getelementptr inbounds %"struct.std::_Vector_base<glslang::TTypeLoc, glslang::pool_allocator<glslang::TTypeLoc>>::_Vector_impl_data", ptr %5, i32 0, i32 1
  %7 = load ptr, ptr %6, align 8
  %8 = getelementptr inbounds %"struct.std::_Vector_base.286", ptr %3, i32 0, i32 0
  %9 = getelementptr inbounds i8, ptr %8, i64 8
  %10 = getelementptr inbounds %"struct.std::_Vector_base<glslang::TTypeLoc, glslang::pool_allocator<glslang::TTypeLoc>>::_Vector_impl_data", ptr %9, i32 0, i32 0
  %11 = load ptr, ptr %10, align 8
  %12 = ptrtoint ptr %7 to i64
  %13 = ptrtoint ptr %11 to i64
  %14 = sub i64 %12, %13
  %15 = sdiv exact i64 %14, 32
  ret i64 %15
}

; Function Attrs: mustprogress nounwind uwtable
define linkonce_odr noundef ptr @_ZNK7glslang5TType9getStructEv(ptr noundef nonnull align 8 dereferenceable(152) %0) #0 comdat align 2 {
  %2 = alloca ptr, align 8
  store ptr %0, ptr %2, align 8
  %3 = load ptr, ptr %2, align 8
  %4 = getelementptr inbounds %"class.glslang::TType", ptr %3, i32 0, i32 5
  %5 = load ptr, ptr %4, align 8
  ret ptr %5
}

; Function Attrs: mustprogress nounwind uwtable
define noundef ptr @_ZNK7glslang16HlslParseContext26getStructBufferContentTypeERKNS_5TTypeE(ptr noundef nonnull align 8 dereferenceable(2489) %0, ptr noundef nonnull align 8 dereferenceable(152) %1) #0 align 2 {
  %3 = alloca ptr, align 8
  %4 = alloca ptr, align 8
  %5 = alloca ptr, align 8
  %6 = alloca i32, align 4
  %7 = alloca ptr, align 8
  store ptr %0, ptr %4, align 8
  store ptr %1, ptr %5, align 8
  %8 = load ptr, ptr %5, align 8
  %9 = load ptr, ptr %8, align 8
  %10 = getelementptr inbounds ptr, ptr %9, i64 7
  %11 = load ptr, ptr %10, align 8
  %12 = call noundef i32 %11(ptr noundef nonnull align 8 dereferenceable(152) %8)
  %13 = icmp ne i32 %12, 16
  br i1 %13, label %25, label %14

14:                                               ; preds = %2
  %15 = load ptr, ptr %5, align 8
  %16 = load ptr, ptr %15, align 8
  %17 = getelementptr inbounds ptr, ptr %16, i64 11
  %18 = load ptr, ptr %17, align 8
  %19 = call noundef nonnull align 8 dereferenceable(80) ptr %18(ptr noundef nonnull align 8 dereferenceable(152) %15)
  %20 = getelementptr inbounds %"class.glslang::TQualifier", ptr %19, i32 0, i32 1
  %21 = load i64, ptr %20, align 8
  %22 = and i64 %21, 127
  %23 = trunc i64 %22 to i32
  %24 = icmp ne i32 %23, 6
  br i1 %24, label %25, label %26

25:                                               ; preds = %14, %2
  store ptr null, ptr %3, align 8
  br label %49

26:                                               ; preds = %14
  %27 = load ptr, ptr %5, align 8
  %28 = call noundef ptr @_ZNK7glslang5TType9getStructEv(ptr noundef nonnull align 8 dereferenceable(152) %27)
  %29 = call noundef i64 @_ZNKSt6vectorIN7glslang8TTypeLocENS0_14pool_allocatorIS1_EEE4sizeEv(ptr noundef nonnull align 8 dereferenceable(32) %28) #13
  %30 = trunc i64 %29 to i32
  store i32 %30, ptr %6, align 4
  %31 = load ptr, ptr %5, align 8
  %32 = call noundef ptr @_ZNK7glslang5TType9getStructEv(ptr noundef nonnull align 8 dereferenceable(152) %31)
  %33 = load i32, ptr %6, align 4
  %34 = sub nsw i32 %33, 1
  %35 = sext i32 %34 to i64
  %36 = call noundef nonnull align 8 dereferenceable(32) ptr @_ZNKSt6vectorIN7glslang8TTypeLocENS0_14pool_allocatorIS1_EEEixEm(ptr noundef nonnull align 8 dereferenceable(32) %32, i64 noundef %35) #13
  %37 = getelementptr inbounds %"struct.glslang::TTypeLoc", ptr %36, i32 0, i32 0
  %38 = load ptr, ptr %37, align 8
  store ptr %38, ptr %7, align 8
  %39 = load ptr, ptr %7, align 8
  %40 = load ptr, ptr %39, align 8
  %41 = getelementptr inbounds ptr, ptr %40, i64 31
  %42 = load ptr, ptr %41, align 8
  %43 = call noundef zeroext i1 %42(ptr noundef nonnull align 8 dereferenceable(152) %39)
  br i1 %43, label %44, label %46

44:                                               ; preds = %26
  %45 = load ptr, ptr %7, align 8
  br label %47

46:                                               ; preds = %26
  br label %47

47:                                               ; preds = %46, %44
  %48 = phi ptr [ %45, %44 ], [ null, %46 ]
  store ptr %48, ptr %3, align 8
  br label %49

49:                                               ; preds = %47, %25
  %50 = load ptr, ptr %3, align 8
  ret ptr %50
}