; Function Attrs: mustprogress nounwind uwtable
define noundef ptr @_ZNK7glslang16HlslParseContext26getStructBufferContentTypeERKNS_5TTypeE(ptr nocapture noundef nonnull readnone align 8 dereferenceable(2489) %0, ptr noundef nonnull align 8 dereferenceable(152) %1) local_unnamed_addr #0 align 2 {
  %3 = load ptr, ptr %1, align 8
  %4 = getelementptr inbounds i8, ptr %3, i64 56
  %5 = load ptr, ptr %4, align 8
  %6 = tail call noundef i32 %5(ptr noundef nonnull align 8 dereferenceable(152) %1) #24
  %.not = icmp eq i32 %6, 16
  br i1 %.not, label %7, label %34

7:                                                ; preds = %2
  %8 = load ptr, ptr %1, align 8
  %9 = getelementptr inbounds i8, ptr %8, i64 88
  %10 = load ptr, ptr %9, align 8
  %11 = tail call noundef nonnull align 8 dereferenceable(80) ptr %10(ptr noundef nonnull align 8 dereferenceable(152) %1) #24
  %12 = getelementptr inbounds i8, ptr %11, i64 8
  %13 = load i64, ptr %12, align 8
  %14 = and i64 %13, 127
  %.not7 = icmp eq i64 %14, 6
  br i1 %.not7, label %15, label %34

15:                                               ; preds = %7
  %16 = getelementptr inbounds i8, ptr %1, i64 104
  %17 = load ptr, ptr %16, align 8
  %18 = getelementptr inbounds i8, ptr %17, i64 8
  %19 = getelementptr inbounds i8, ptr %17, i64 16
  %20 = load ptr, ptr %19, align 8
  %21 = load ptr, ptr %18, align 8
  %22 = ptrtoint ptr %20 to i64
  %23 = ptrtoint ptr %21 to i64
  %24 = sub i64 %22, %23
  %25 = shl i64 %24, 27
  %sext = add i64 %25, -4294967296
  %26 = ashr exact i64 %sext, 32
  %27 = getelementptr inbounds %"struct.glslang::TTypeLoc", ptr %21, i64 %26
  %28 = load ptr, ptr %27, align 8
  %29 = load ptr, ptr %28, align 8
  %30 = getelementptr inbounds i8, ptr %29, i64 248
  %31 = load ptr, ptr %30, align 8
  %32 = tail call noundef zeroext i1 %31(ptr noundef nonnull align 8 dereferenceable(152) %28) #24
  %33 = select i1 %32, ptr %28, ptr null
  br label %34

34:                                               ; preds = %2, %7, %15
  %.0 = phi ptr [ %33, %15 ], [ null, %7 ], [ null, %2 ]
  ret ptr %.0
}